target datalayout = "e-m:e-p270:32:32-p271:32:32-p272:64:64-i64:64-i128:128-f80:128-n8:16:32:64-S128"
target triple = "x86_64-pc-linux-gnu"

%struct.__va_list_tag = type { i32, i32, ptr, ptr }

@ett_mswsp_msg_padding = internal global i32 0, align 4
@.str.1156 = private unnamed_addr constant [29 x i8] c"%s:%u: failed assertion \22%s\22\00", align 1
@.str.1157 = private unnamed_addr constant [31 x i8] c"epan/dissectors/packet-mswsp.c\00", align 1
@.str.1159 = private unnamed_addr constant [6 x i8] c" (%d)\00", align 1
@.str.1160 = private unnamed_addr constant [26 x i8] c"(offset % alignment) == 0\00", align 1

; Function Attrs: null_pointer_is_valid sspstrong uwtable
define internal i32 @parse_padding(ptr noundef %0, i32 noundef %1, i32 noundef %2, ptr noundef %3, ptr noundef %4, ...) #0 {
  %6 = alloca ptr, align 8
  %7 = alloca i32, align 4
  %8 = alloca i32, align 4
  %9 = alloca ptr, align 8
  %10 = alloca ptr, align 8
  %11 = alloca i32, align 4
  %12 = alloca ptr, align 8
  %13 = alloca [1 x %struct.__va_list_tag], align 16
  %14 = alloca ptr, align 8
  store ptr %0, ptr %6, align 8
  store i32 %1, ptr %7, align 4
  store i32 %2, ptr %8, align 4
  store ptr %3, ptr %9, align 8
  store ptr %4, ptr %10, align 8
  %15 = load i32, ptr %7, align 4
  %16 = load i32, ptr %8, align 4
  %17 = srem i32 %15, %16
  %18 = icmp ne i32 %17, 0
  br i1 %18, label %19, label %43

19:                                               ; preds = %5
  call void @llvm.lifetime.start.p0(i64 4, ptr %11) #11
  %20 = load i32, ptr %8, align 4
  %21 = load i32, ptr %7, align 4
  %22 = load i32, ptr %8, align 4
  %23 = srem i32 %21, %22
  %24 = sub i32 %20, %23
  store i32 %24, ptr %11, align 4
  call void @llvm.lifetime.start.p0(i64 8, ptr %12) #11
  call void @llvm.lifetime.start.p0(i64 24, ptr %13) #11
  call void @llvm.lifetime.start.p0(i64 8, ptr %14) #11
  %25 = getelementptr inbounds [1 x %struct.__va_list_tag], ptr %13, i64 0, i64 0
  call void @llvm.va_start.p0(ptr %25)
  %26 = call ptr @wmem_packet_scope()
  %27 = load ptr, ptr %10, align 8
  %28 = getelementptr inbounds [1 x %struct.__va_list_tag], ptr %13, i64 0, i64 0
  %29 = call noalias ptr @wmem_strdup_vprintf(ptr noundef %26, ptr noundef %27, ptr noundef %28)
  store ptr %29, ptr %12, align 8
  %30 = load ptr, ptr %9, align 8
  %31 = load ptr, ptr %6, align 8
  %32 = load i32, ptr %7, align 4
  %33 = load i32, ptr %11, align 4
  %34 = load i32, ptr @ett_mswsp_msg_padding, align 4
  %35 = load ptr, ptr %12, align 8
  %36 = call ptr @proto_tree_add_subtree(ptr noundef %30, ptr noundef %31, i32 noundef %32, i32 noundef %33, i32 noundef %34, ptr noundef %14, ptr noundef %35)
  %37 = getelementptr inbounds [1 x %struct.__va_list_tag], ptr %13, i64 0, i64 0
  call void @llvm.va_end.p0(ptr %37)
  %38 = load ptr, ptr %14, align 8
  %39 = load i32, ptr %11, align 4
  call void (ptr, ptr, ...) @proto_item_append_text(ptr noundef %38, ptr noundef @.str.1159, i32 noundef %39)
  %40 = load i32, ptr %11, align 4
  %41 = load i32, ptr %7, align 4
  %42 = add i32 %41, %40
  store i32 %42, ptr %7, align 4
  call void @llvm.lifetime.end.p0(i64 8, ptr %14) #11
  call void @llvm.lifetime.end.p0(i64 24, ptr %13) #11
  call void @llvm.lifetime.end.p0(i64 8, ptr %12) #11
  call void @llvm.lifetime.end.p0(i64 4, ptr %11) #11
  br label %43

43:                                               ; preds = %19, %5
  %44 = load i32, ptr %7, align 4
  %45 = load i32, ptr %8, align 4
  %46 = srem i32 %44, %45
  %47 = icmp eq i32 %46, 0
  br i1 %47, label %48, label %49

48:                                               ; preds = %43
  br label %51

49:                                               ; preds = %43
  call void (ptr, ...) @proto_report_dissector_bug(ptr noundef @.str.1156, ptr noundef @.str.1157, i32 noundef 3023, ptr noundef @.str.1160) #12
  unreachable

50:                                               ; No predecessors!
  br label %51

51:                                               ; preds = %50, %48
  %52 = load i32, ptr %7, align 4
  ret i32 %52
}