; Function Attrs: null_pointer_is_valid sspstrong uwtable
define internal noundef i32 @parse_padding(ptr noundef %0, i32 noundef %1, i32 noundef %2, ptr noundef %3, ptr noundef %4, ...) unnamed_addr #0 {
  %6 = alloca [1 x %struct.__va_list_tag], align 16
  %7 = alloca ptr, align 8
  %8 = srem i32 %1, %2
  %.not = icmp eq i32 %8, 0
  br i1 %.not, label %17, label %9

9:                                                ; preds = %5
  %10 = sub i32 %2, %8
  call void @llvm.lifetime.start.p0(i64 24, ptr nonnull %6) #11
  call void @llvm.lifetime.start.p0(i64 8, ptr nonnull %7) #11
  call void @llvm.va_start.p0(ptr nonnull %6)
  %11 = call ptr @wmem_packet_scope()
  %12 = call noalias ptr @wmem_strdup_vprintf(ptr noundef %11, ptr noundef %4, ptr noundef nonnull %6)
  %13 = load i32, ptr @ett_mswsp_msg_padding, align 4
  %14 = call ptr @proto_tree_add_subtree(ptr noundef %3, ptr noundef %0, i32 noundef %1, i32 noundef %10, i32 noundef %13, ptr noundef nonnull %7, ptr noundef %12)
  call void @llvm.va_end.p0(ptr nonnull %6)
  %15 = load ptr, ptr %7, align 8
  call void (ptr, ptr, ...) @proto_item_append_text(ptr noundef %15, ptr noundef nonnull @.str.1159, i32 noundef %10)
  %16 = add i32 %10, %1
  call void @llvm.lifetime.end.p0(i64 8, ptr nonnull %7) #11
  call void @llvm.lifetime.end.p0(i64 24, ptr nonnull %6) #11
  br label %17

17:                                               ; preds = %9, %5
  %.0 = phi i32 [ %16, %9 ], [ %1, %5 ]
  %18 = srem i32 %.0, %2
  %19 = icmp eq i32 %18, 0
  br i1 %19, label %21, label %20

20:                                               ; preds = %17
  call void (ptr, ...) @proto_report_dissector_bug(ptr noundef nonnull @.str.1156, ptr noundef nonnull @.str.1157, i32 noundef 3023, ptr noundef nonnull @.str.1160) #13
  unreachable

21:                                               ; preds = %17
  ret i32 %.0
}